target datalayout = "e-m:e-p270:32:32-p271:32:32-p272:64:64-i64:64-i128:128-f80:128-n8:16:32:64-S128"
target triple = "x86_64-pc-linux-gnu"

%"class.icu_77::UMutex" = type { [40 x i8], %"struct.std::atomic", ptr }
%"struct.std::atomic" = type { %"struct.std::__atomic_base" }
%"struct.std::__atomic_base" = type { ptr }
%struct.UStringPrepProfile = type { [16 x i32], %struct.UTrie, ptr, ptr, i32, i8, i8, i8 }
%struct.UTrie = type { ptr, ptr, ptr, i32, i32, i32, i8 }

@_ZL11usprepMutex = internal global %"class.icu_77::UMutex" zeroinitializer, align 8

; Function Attrs: mustprogress uwtable
define void @usprep_close_77(ptr noundef %0) #0 {
  %2 = alloca ptr, align 8
  store ptr %0, ptr %2, align 8, !tbaa !11
  %3 = load ptr, ptr %2, align 8, !tbaa !11
  %4 = icmp eq ptr %3, null
  br i1 %4, label %5, label %6

5:                                                ; preds = %1
  br label %17

6:                                                ; preds = %1
  call void @umtx_lock_77(ptr noundef @_ZL11usprepMutex)
  %7 = load ptr, ptr %2, align 8, !tbaa !11
  %8 = getelementptr inbounds nuw %struct.UStringPrepProfile, ptr %7, i32 0, i32 4
  %9 = load i32, ptr %8, align 8, !tbaa !18
  %10 = icmp sgt i32 %9, 0
  br i1 %10, label %11, label %16

11:                                               ; preds = %6
  %12 = load ptr, ptr %2, align 8, !tbaa !11
  %13 = getelementptr inbounds nuw %struct.UStringPrepProfile, ptr %12, i32 0, i32 4
  %14 = load i32, ptr %13, align 8, !tbaa !18
  %15 = add nsw i32 %14, -1
  store i32 %15, ptr %13, align 8, !tbaa !18
  br label %16

16:                                               ; preds = %11, %6
  call void @umtx_unlock_77(ptr noundef @_ZL11usprepMutex)
  br label %17

17:                                               ; preds = %16, %5
  ret void
}