; Function Attrs: mustprogress uwtable
define void @usprep_close_77(ptr noundef %0) local_unnamed_addr #0 {
  %2 = icmp eq ptr %0, null
  br i1 %2, label %10, label %3

3:                                                ; preds = %1
  tail call void @umtx_lock_77(ptr noundef nonnull @_ZL11usprepMutex)
  %4 = getelementptr inbounds nuw i8, ptr %0, i64 120
  %5 = load i32, ptr %4, align 8, !tbaa !19
  %6 = icmp sgt i32 %5, 0
  br i1 %6, label %7, label %9

7:                                                ; preds = %3
  %8 = add nsw i32 %5, -1
  store i32 %8, ptr %4, align 8, !tbaa !19
  br label %9

9:                                                ; preds = %7, %3
  tail call void @umtx_unlock_77(ptr noundef nonnull @_ZL11usprepMutex)
  br label %10

10:                                               ; preds = %1, %9
  ret void
}